target datalayout = "e-m:e-p270:32:32-p271:32:32-p272:64:64-i64:64-i128:128-f80:128-n8:16:32:64-S128"
target triple = "x86_64-pc-linux-gnu"

%struct.DdManager = type { %struct.DdNode, ptr, ptr, ptr, ptr, ptr, ptr, ptr, i32, i32, double, double, double, i32, i32, i32, i32, i32, i32, ptr, ptr, %struct.DdSubtable, i32, i32, i32, i32, i32, i32, i32, double, i32, i32, i32, ptr, i64, double, i32, ptr, ptr, ptr, ptr, ptr, ptr, ptr, i32, ptr, ptr, ptr, ptr, ptr, ptr, i32, i32, i32, double, i32, i32, i32, i32, double, double, i32, i32, i32, i32, i32, i32, i32, i32, i32, ptr, ptr, i32, i32, i32, i32, i32, i32, ptr, ptr, ptr, ptr, ptr, ptr, ptr, ptr, i32, i64, i64, i64, i32, i64, i64, double, double, double, double, double, double, i32, ptr, ptr, i64 }
%struct.DdNode = type { i32, i32, ptr, %union.anon, i64 }
%union.anon = type { %struct.DdChildren }
%struct.DdChildren = type { ptr, ptr }
%struct.DdSubtable = type { ptr, i32, i32, i32, i32, i32, i32, i32, i32, i32, i32, i32 }
%struct.MtrNode = type { i32, i32, i32, i32, ptr, ptr, ptr, ptr }

; Function Attrs: nounwind uwtable
define i32 @cuddZddTreeSifting(ptr noundef %0, i32 noundef %1) #0 {
  %3 = alloca ptr, align 8
  %4 = alloca i32, align 4
  %5 = alloca i32, align 4
  %6 = alloca i32, align 4
  %7 = alloca i32, align 4
  %8 = alloca i32, align 4
  store ptr %0, ptr %3, align 8, !tbaa !3
  store i32 %1, ptr %4, align 4, !tbaa !8
  call void @llvm.lifetime.start.p0(i64 4, ptr %5) #5
  call void @llvm.lifetime.start.p0(i64 4, ptr %6) #5
  call void @llvm.lifetime.start.p0(i64 4, ptr %7) #5
  call void @llvm.lifetime.start.p0(i64 4, ptr %8) #5
  %9 = load ptr, ptr %3, align 8, !tbaa !3
  %10 = getelementptr inbounds nuw %struct.DdManager, ptr %9, i32 0, i32 71
  %11 = load ptr, ptr %10, align 8, !tbaa !28
  %12 = icmp eq ptr %11, null
  %13 = zext i1 %12 to i32
  store i32 %13, ptr %8, align 4, !tbaa !8
  %14 = load i32, ptr %8, align 4, !tbaa !8
  %15 = icmp ne i32 %14, 0
  br i1 %15, label %16, label %32

16:                                               ; preds = %2
  %17 = load ptr, ptr %3, align 8, !tbaa !3
  %18 = getelementptr inbounds nuw %struct.DdManager, ptr %17, i32 0, i32 16
  %19 = load i32, ptr %18, align 4, !tbaa !10
  %20 = call ptr @Mtr_InitGroupTree(i32 noundef 0, i32 noundef %19)
  %21 = load ptr, ptr %3, align 8, !tbaa !3
  %22 = getelementptr inbounds nuw %struct.DdManager, ptr %21, i32 0, i32 71
  store ptr %20, ptr %22, align 8, !tbaa !28
  %23 = load ptr, ptr %3, align 8, !tbaa !3
  %24 = getelementptr inbounds nuw %struct.DdManager, ptr %23, i32 0, i32 40
  %25 = load ptr, ptr %24, align 8, !tbaa !30
  %26 = getelementptr inbounds i32, ptr %25, i64 0
  %27 = load i32, ptr %26, align 4, !tbaa !8
  %28 = load ptr, ptr %3, align 8, !tbaa !3
  %29 = getelementptr inbounds nuw %struct.DdManager, ptr %28, i32 0, i32 71
  %30 = load ptr, ptr %29, align 8, !tbaa !28
  %31 = getelementptr inbounds nuw %struct.MtrNode, ptr %30, i32 0, i32 3
  store i32 %27, ptr %31, align 4, !tbaa !31
  br label %32

32:                                               ; preds = %16, %2
  %33 = load ptr, ptr %3, align 8, !tbaa !3
  %34 = getelementptr inbounds nuw %struct.DdManager, ptr %33, i32 0, i32 16
  %35 = load i32, ptr %34, align 4, !tbaa !10
  store i32 %35, ptr %6, align 4, !tbaa !8
  store i32 0, ptr %5, align 4, !tbaa !8
  br label %36

36:                                               ; preds = %49, %32
  %37 = load i32, ptr %5, align 4, !tbaa !8
  %38 = load i32, ptr %6, align 4, !tbaa !8
  %39 = icmp slt i32 %37, %38
  br i1 %39, label %40, label %52

40:                                               ; preds = %36
  %41 = load i32, ptr %5, align 4, !tbaa !8
  %42 = load ptr, ptr %3, align 8, !tbaa !3
  %43 = getelementptr inbounds nuw %struct.DdManager, ptr %42, i32 0, i32 20
  %44 = load ptr, ptr %43, align 8, !tbaa !34
  %45 = load i32, ptr %5, align 4, !tbaa !8
  %46 = sext i32 %45 to i64
  %47 = getelementptr inbounds %struct.DdSubtable, ptr %44, i64 %46
  %48 = getelementptr inbounds nuw %struct.DdSubtable, ptr %47, i32 0, i32 6
  store i32 %41, ptr %48, align 4, !tbaa !35
  br label %49

49:                                               ; preds = %40
  %50 = load i32, ptr %5, align 4, !tbaa !8
  %51 = add nsw i32 %50, 1
  store i32 %51, ptr %5, align 4, !tbaa !8
  br label %36, !llvm.loop !36

52:                                               ; preds = %36
  %53 = load ptr, ptr %3, align 8, !tbaa !3
  %54 = load ptr, ptr %3, align 8, !tbaa !3
  %55 = getelementptr inbounds nuw %struct.DdManager, ptr %54, i32 0, i32 71
  %56 = load ptr, ptr %55, align 8, !tbaa !28
  %57 = load i32, ptr %4, align 4, !tbaa !8
  %58 = call i32 @zddTreeSiftingAux(ptr noundef %53, ptr noundef %56, i32 noundef %57)
  store i32 %58, ptr %7, align 4, !tbaa !8
  %59 = load i32, ptr %8, align 4, !tbaa !8
  %60 = icmp ne i32 %59, 0
  br i1 %60, label %61, label %63

61:                                               ; preds = %52
  %62 = load ptr, ptr %3, align 8, !tbaa !3
  call void @Cudd_FreeZddTree(ptr noundef %62)
  br label %63

63:                                               ; preds = %61, %52
  %64 = load i32, ptr %7, align 4, !tbaa !8
  call void @llvm.lifetime.end.p0(i64 4, ptr %8) #5
  call void @llvm.lifetime.end.p0(i64 4, ptr %7) #5
  call void @llvm.lifetime.end.p0(i64 4, ptr %6) #5
  call void @llvm.lifetime.end.p0(i64 4, ptr %5) #5
  ret i32 %64
}